; Function Attrs: mustprogress nofree norecurse nosync nounwind memory(readwrite, inaccessiblemem: none) uwtable
define void @_ZN10OpenSubdiv6v3_6_03Vtr8internal10Refinement35populateVertexParentFromParentFacesEPA4_KNS3_8ChildTagE(ptr nocapture noundef nonnull readonly align 8 dereferenceable(504) %0, ptr nocapture noundef readonly %1) local_unnamed_addr #10 align 2 {
  %3 = getelementptr inbounds nuw i8, ptr %0, i64 52
  %4 = load i32, ptr %3, align 4
  %5 = icmp eq i32 %4, 0
  br i1 %5, label %.loopexit, label %6

6:                                                ; preds = %2
  %7 = getelementptr inbounds nuw i8, ptr %0, i64 36
  %8 = load i8, ptr %7, align 4
  %9 = trunc i8 %8 to i1
  %10 = getelementptr inbounds nuw i8, ptr %0, i64 8
  %11 = load ptr, ptr %10, align 8
  %12 = load i32, ptr %11, align 8
  %13 = icmp sgt i32 %12, 0
  br i1 %9, label %18, label %.preheader

.preheader:                                       ; preds = %6
  br i1 %13, label %.lr.ph, label %.loopexit

.lr.ph:                                           ; preds = %.preheader
  %14 = getelementptr inbounds nuw i8, ptr %0, i64 168
  %15 = getelementptr inbounds nuw i8, ptr %0, i64 408
  %16 = getelementptr inbounds nuw i8, ptr %0, i64 384
  %17 = getelementptr inbounds nuw i8, ptr %0, i64 312
  br label %30

18:                                               ; preds = %6
  br i1 %13, label %.lr.ph22, label %.loopexit

.lr.ph22:                                         ; preds = %18
  %19 = getelementptr inbounds nuw i8, ptr %0, i64 76
  %20 = load i32, ptr %19, align 4
  %21 = getelementptr inbounds nuw i8, ptr %0, i64 312
  %22 = sext i32 %20 to i64
  br label %23

23:                                               ; preds = %.lr.ph22, %23
  %indvars.iv25 = phi i64 [ %22, %.lr.ph22 ], [ %indvars.iv.next26, %23 ]
  %.01620 = phi i32 [ 0, %.lr.ph22 ], [ %26, %23 ]
  %24 = load ptr, ptr %21, align 8
  %25 = getelementptr inbounds i32, ptr %24, i64 %indvars.iv25
  store i32 %.01620, ptr %25, align 4
  %26 = add nuw nsw i32 %.01620, 1
  %indvars.iv.next26 = add nsw i64 %indvars.iv25, 1
  %27 = load ptr, ptr %10, align 8
  %28 = load i32, ptr %27, align 8
  %29 = icmp slt i32 %26, %28
  br i1 %29, label %23, label %.loopexit, !llvm.loop !36

30:                                               ; preds = %.lr.ph, %47
  %31 = phi i32 [ %12, %.lr.ph ], [ %48, %47 ]
  %indvars.iv = phi i64 [ 0, %.lr.ph ], [ %indvars.iv.next, %47 ]
  %32 = load ptr, ptr %14, align 8
  %33 = getelementptr inbounds i32, ptr %32, i64 %indvars.iv
  %34 = load i32, ptr %33, align 4
  %.not17 = icmp eq i32 %34, -1
  br i1 %.not17, label %47, label %35

35:                                               ; preds = %30
  %36 = load ptr, ptr %15, align 8
  %37 = getelementptr inbounds %"struct.OpenSubdiv::v3_6_0::Vtr::internal::Refinement::SparseTag", ptr %36, i64 %indvars.iv
  %38 = load i8, ptr %37, align 1
  %39 = and i8 %38, 1
  %.not = icmp eq i8 %39, 0
  %.pre29 = sext i32 %34 to i64
  br i1 %.not, label %._crit_edge, label %40

40:                                               ; preds = %35
  %41 = load ptr, ptr %16, align 8
  %42 = getelementptr inbounds %"struct.OpenSubdiv::v3_6_0::Vtr::internal::Refinement::ChildTag", ptr %41, i64 %.pre29
  %43 = load i8, ptr %1, align 1
  store i8 %43, ptr %42, align 1
  br label %._crit_edge

._crit_edge:                                      ; preds = %35, %40
  %44 = load ptr, ptr %17, align 8
  %45 = getelementptr inbounds i32, ptr %44, i64 %.pre29
  %46 = trunc nuw nsw i64 %indvars.iv to i32
  store i32 %46, ptr %45, align 4
  %.pre = load ptr, ptr %10, align 8
  %.pre28 = load i32, ptr %.pre, align 8
  br label %47

47:                                               ; preds = %30, %._crit_edge
  %48 = phi i32 [ %31, %30 ], [ %.pre28, %._crit_edge ]
  %indvars.iv.next = add nuw nsw i64 %indvars.iv, 1
  %49 = sext i32 %48 to i64
  %50 = icmp slt i64 %indvars.iv.next, %49
  br i1 %50, label %30, label %.loopexit, !llvm.loop !37

.loopexit:                                        ; preds = %47, %23, %.preheader, %18, %2
  ret void
}